target datalayout = "e-m:e-p270:32:32-p271:32:32-p272:64:64-i64:64-i128:128-f80:128-n8:16:32:64-S128"
target triple = "x86_64-pc-linux-gnu"

@hf_mp4_full_box_ver = internal global i32 0, align 4
@hf_mp4_full_box_flags = internal global i32 0, align 4
@hf_mp4_stsc_entry_count = internal global i32 0, align 4
@hf_mp4_stsc_first_chunk = internal global i32 0, align 4
@hf_mp4_stsc_samples_per_chunk = internal global i32 0, align 4
@hf_mp4_stsc_sample_description_index = internal global i32 0, align 4
@ett_mp4_full_box_flags = internal global i32 0, align 4
@ett_mp4_entry = internal global i32 0, align 4
@.str.174 = private unnamed_addr constant [10 x i8] c"Entry %u:\00", align 1
@.str.175 = private unnamed_addr constant [70 x i8] c" First chunk: %u; Samples per chunk: %u; Sample description index: %u\00", align 1

; Function Attrs: null_pointer_is_valid sspstrong uwtable
define internal i32 @dissect_mp4_full_box(ptr noundef %0, i32 noundef %1, ptr noundef %2, ptr noundef %3, ptr noundef %4, ptr noundef %5) #0 {
  %7 = alloca ptr, align 8
  %8 = alloca i32, align 4
  %9 = alloca ptr, align 8
  %10 = alloca ptr, align 8
  %11 = alloca ptr, align 8
  %12 = alloca ptr, align 8
  store ptr %0, ptr %7, align 8
  store i32 %1, ptr %8, align 4
  store ptr %2, ptr %9, align 8
  store ptr %3, ptr %10, align 8
  store ptr %4, ptr %11, align 8
  store ptr %5, ptr %12, align 8
  %13 = load ptr, ptr %11, align 8
  %14 = icmp ne ptr %13, null
  br i1 %14, label %15, label %20

15:                                               ; preds = %6
  %16 = load ptr, ptr %7, align 8
  %17 = load i32, ptr %8, align 4
  %18 = call zeroext i8 @tvb_get_uint8(ptr noundef %16, i32 noundef %17)
  %19 = load ptr, ptr %11, align 8
  store i8 %18, ptr %19, align 1
  br label %20

20:                                               ; preds = %15, %6
  %21 = load ptr, ptr %9, align 8
  %22 = load i32, ptr @hf_mp4_full_box_ver, align 4
  %23 = load ptr, ptr %7, align 8
  %24 = load i32, ptr %8, align 4
  %25 = call ptr @proto_tree_add_item(ptr noundef %21, i32 noundef %22, ptr noundef %23, i32 noundef %24, i32 noundef 1, i32 noundef 0)
  %26 = load i32, ptr %8, align 4
  %27 = add i32 %26, 1
  store i32 %27, ptr %8, align 4
  %28 = load ptr, ptr %12, align 8
  %29 = icmp ne ptr %28, null
  br i1 %29, label %30, label %35

30:                                               ; preds = %20
  %31 = load ptr, ptr %7, align 8
  %32 = load i32, ptr %8, align 4
  %33 = call i32 @tvb_get_ntoh24(ptr noundef %31, i32 noundef %32)
  %34 = load ptr, ptr %12, align 8
  store i32 %33, ptr %34, align 4
  br label %35

35:                                               ; preds = %30, %20
  %36 = load ptr, ptr %10, align 8
  %37 = icmp ne ptr %36, null
  br i1 %37, label %38, label %46

38:                                               ; preds = %35
  %39 = load ptr, ptr %9, align 8
  %40 = load ptr, ptr %7, align 8
  %41 = load i32, ptr %8, align 4
  %42 = load i32, ptr @hf_mp4_full_box_flags, align 4
  %43 = load i32, ptr @ett_mp4_full_box_flags, align 4
  %44 = load ptr, ptr %10, align 8
  %45 = call ptr @proto_tree_add_bitmask(ptr noundef %39, ptr noundef %40, i32 noundef %41, i32 noundef %42, i32 noundef %43, ptr noundef %44, i32 noundef 0)
  br label %52

46:                                               ; preds = %35
  %47 = load ptr, ptr %9, align 8
  %48 = load i32, ptr @hf_mp4_full_box_flags, align 4
  %49 = load ptr, ptr %7, align 8
  %50 = load i32, ptr %8, align 4
  %51 = call ptr @proto_tree_add_item(ptr noundef %47, i32 noundef %48, ptr noundef %49, i32 noundef %50, i32 noundef 3, i32 noundef 0)
  br label %52

52:                                               ; preds = %46, %38
  ret i32 4
}

; Function Attrs: null_pointer_is_valid sspstrong uwtable
define internal i32 @dissect_mp4_stsc_body(ptr noundef %0, i32 noundef %1, i32 noundef %2, ptr noundef %3, i32 noundef %4, ptr noundef %5) #0 {
  %7 = alloca ptr, align 8
  %8 = alloca i32, align 4
  %9 = alloca i32, align 4
  %10 = alloca ptr, align 8
  %11 = alloca i32, align 4
  %12 = alloca ptr, align 8
  %13 = alloca i32, align 4
  %14 = alloca i32, align 4
  %15 = alloca ptr, align 8
  %16 = alloca ptr, align 8
  %17 = alloca i32, align 4
  %18 = alloca i32, align 4
  %19 = alloca i32, align 4
  store ptr %0, ptr %7, align 8
  store i32 %1, ptr %8, align 4
  store i32 %2, ptr %9, align 4
  store ptr %3, ptr %10, align 8
  store i32 %4, ptr %11, align 4
  store ptr %5, ptr %12, align 8
  call void @llvm.lifetime.start.p0(i64 4, ptr %13) #7
  call void @llvm.lifetime.start.p0(i64 4, ptr %14) #7
  %20 = load ptr, ptr %7, align 8
  %21 = load i32, ptr %8, align 4
  %22 = load ptr, ptr %12, align 8
  %23 = call i32 @dissect_mp4_full_box(ptr noundef %20, i32 noundef %21, ptr noundef %22, ptr noundef null, ptr noundef null, ptr noundef null)
  %24 = load i32, ptr %8, align 4
  %25 = add i32 %24, %23
  store i32 %25, ptr %8, align 4
  %26 = load ptr, ptr %12, align 8
  %27 = load i32, ptr @hf_mp4_stsc_entry_count, align 4
  %28 = load ptr, ptr %7, align 8
  %29 = load i32, ptr %8, align 4
  %30 = call ptr @proto_tree_add_item_ret_uint(ptr noundef %26, i32 noundef %27, ptr noundef %28, i32 noundef %29, i32 noundef 4, i32 noundef 0, ptr noundef %13)
  %31 = load i32, ptr %8, align 4
  %32 = add i32 %31, 4
  store i32 %32, ptr %8, align 4
  store i32 1, ptr %14, align 4
  br label %33

33:                                               ; preds = %69, %6
  %34 = load i32, ptr %14, align 4
  %35 = load i32, ptr %13, align 4
  %36 = icmp ule i32 %34, %35
  br i1 %36, label %37, label %72

37:                                               ; preds = %33
  call void @llvm.lifetime.start.p0(i64 8, ptr %15) #7
  call void @llvm.lifetime.start.p0(i64 8, ptr %16) #7
  call void @llvm.lifetime.start.p0(i64 4, ptr %17) #7
  call void @llvm.lifetime.start.p0(i64 4, ptr %18) #7
  call void @llvm.lifetime.start.p0(i64 4, ptr %19) #7
  %38 = load ptr, ptr %12, align 8
  %39 = load ptr, ptr %7, align 8
  %40 = load i32, ptr %8, align 4
  %41 = load i32, ptr @ett_mp4_entry, align 4
  %42 = load i32, ptr %14, align 4
  %43 = call ptr (ptr, ptr, i32, i32, i32, ptr, ptr, ...) @proto_tree_add_subtree_format(ptr noundef %38, ptr noundef %39, i32 noundef %40, i32 noundef 12, i32 noundef %41, ptr noundef %16, ptr noundef @.str.174, i32 noundef %42)
  store ptr %43, ptr %15, align 8
  %44 = load ptr, ptr %15, align 8
  %45 = load i32, ptr @hf_mp4_stsc_first_chunk, align 4
  %46 = load ptr, ptr %7, align 8
  %47 = load i32, ptr %8, align 4
  %48 = call ptr @proto_tree_add_item_ret_uint(ptr noundef %44, i32 noundef %45, ptr noundef %46, i32 noundef %47, i32 noundef 4, i32 noundef 0, ptr noundef %17)
  %49 = load i32, ptr %8, align 4
  %50 = add i32 %49, 4
  store i32 %50, ptr %8, align 4
  %51 = load ptr, ptr %15, align 8
  %52 = load i32, ptr @hf_mp4_stsc_samples_per_chunk, align 4
  %53 = load ptr, ptr %7, align 8
  %54 = load i32, ptr %8, align 4
  %55 = call ptr @proto_tree_add_item_ret_uint(ptr noundef %51, i32 noundef %52, ptr noundef %53, i32 noundef %54, i32 noundef 4, i32 noundef 0, ptr noundef %18)
  %56 = load i32, ptr %8, align 4
  %57 = add i32 %56, 4
  store i32 %57, ptr %8, align 4
  %58 = load ptr, ptr %15, align 8
  %59 = load i32, ptr @hf_mp4_stsc_sample_description_index, align 4
  %60 = load ptr, ptr %7, align 8
  %61 = load i32, ptr %8, align 4
  %62 = call ptr @proto_tree_add_item_ret_uint(ptr noundef %58, i32 noundef %59, ptr noundef %60, i32 noundef %61, i32 noundef 4, i32 noundef 0, ptr noundef %19)
  %63 = load i32, ptr %8, align 4
  %64 = add i32 %63, 4
  store i32 %64, ptr %8, align 4
  %65 = load ptr, ptr %16, align 8
  %66 = load i32, ptr %17, align 4
  %67 = load i32, ptr %18, align 4
  %68 = load i32, ptr %19, align 4
  call void (ptr, ptr, ...) @proto_item_append_text(ptr noundef %65, ptr noundef @.str.175, i32 noundef %66, i32 noundef %67, i32 noundef %68)
  call void @llvm.lifetime.end.p0(i64 4, ptr %19) #7
  call void @llvm.lifetime.end.p0(i64 4, ptr %18) #7
  call void @llvm.lifetime.end.p0(i64 4, ptr %17) #7
  call void @llvm.lifetime.end.p0(i64 8, ptr %16) #7
  call void @llvm.lifetime.end.p0(i64 8, ptr %15) #7
  br label %69

69:                                               ; preds = %37
  %70 = load i32, ptr %14, align 4
  %71 = add i32 %70, 1
  store i32 %71, ptr %14, align 4
  br label %33, !llvm.loop !11

72:                                               ; preds = %33
  %73 = load i32, ptr %9, align 4
  call void @llvm.lifetime.end.p0(i64 4, ptr %14) #7
  call void @llvm.lifetime.end.p0(i64 4, ptr %13) #7
  ret i32 %73
}