; Function Attrs: null_pointer_is_valid sspstrong uwtable
define internal fastcc void @dissect_mp4_stsc_body(ptr noundef %0, i32 noundef %1, ptr noundef %2) unnamed_addr #0 {
  %4 = alloca i32, align 4
  %5 = alloca ptr, align 8
  %6 = alloca i32, align 4
  %7 = alloca i32, align 4
  %8 = alloca i32, align 4
  call void @llvm.lifetime.start.p0(i64 4, ptr nonnull %4) #5
  %9 = load i32, ptr @hf_mp4_full_box_ver, align 4
  %10 = tail call ptr @proto_tree_add_item(ptr noundef %2, i32 noundef %9, ptr noundef %0, i32 noundef %1, i32 noundef 1, i32 noundef 0)
  %11 = add i32 %1, 1
  %12 = load i32, ptr @hf_mp4_full_box_flags, align 4
  %13 = tail call ptr @proto_tree_add_item(ptr noundef %2, i32 noundef %12, ptr noundef %0, i32 noundef %11, i32 noundef 3, i32 noundef 0)
  %14 = add i32 %1, 4
  %15 = load i32, ptr @hf_mp4_stsc_entry_count, align 4
  %16 = call ptr @proto_tree_add_item_ret_uint(ptr noundef %2, i32 noundef %15, ptr noundef %0, i32 noundef %14, i32 noundef 4, i32 noundef 0, ptr noundef nonnull %4)
  %17 = load i32, ptr %4, align 4
  %.not1 = icmp eq i32 %17, 0
  br i1 %.not1, label %._crit_edge, label %.lr.ph.preheader

.lr.ph.preheader:                                 ; preds = %3
  %18 = add i32 %1, 8
  br label %.lr.ph

.lr.ph:                                           ; preds = %.lr.ph.preheader, %.lr.ph
  %.03 = phi i32 [ %29, %.lr.ph ], [ %18, %.lr.ph.preheader ]
  %.0262 = phi i32 [ %34, %.lr.ph ], [ 1, %.lr.ph.preheader ]
  call void @llvm.lifetime.start.p0(i64 8, ptr nonnull %5) #5
  call void @llvm.lifetime.start.p0(i64 4, ptr nonnull %6) #5
  call void @llvm.lifetime.start.p0(i64 4, ptr nonnull %7) #5
  call void @llvm.lifetime.start.p0(i64 4, ptr nonnull %8) #5
  %19 = load i32, ptr @ett_mp4_entry, align 4
  %20 = call ptr (ptr, ptr, i32, i32, i32, ptr, ptr, ...) @proto_tree_add_subtree_format(ptr noundef %2, ptr noundef %0, i32 noundef %.03, i32 noundef 12, i32 noundef %19, ptr noundef nonnull %5, ptr noundef nonnull @.str.174, i32 noundef %.0262)
  %21 = load i32, ptr @hf_mp4_stsc_first_chunk, align 4
  %22 = call ptr @proto_tree_add_item_ret_uint(ptr noundef %20, i32 noundef %21, ptr noundef %0, i32 noundef %.03, i32 noundef 4, i32 noundef 0, ptr noundef nonnull %6)
  %23 = add i32 %.03, 4
  %24 = load i32, ptr @hf_mp4_stsc_samples_per_chunk, align 4
  %25 = call ptr @proto_tree_add_item_ret_uint(ptr noundef %20, i32 noundef %24, ptr noundef %0, i32 noundef %23, i32 noundef 4, i32 noundef 0, ptr noundef nonnull %7)
  %26 = add i32 %.03, 8
  %27 = load i32, ptr @hf_mp4_stsc_sample_description_index, align 4
  %28 = call ptr @proto_tree_add_item_ret_uint(ptr noundef %20, i32 noundef %27, ptr noundef %0, i32 noundef %26, i32 noundef 4, i32 noundef 0, ptr noundef nonnull %8)
  %29 = add i32 %.03, 12
  %30 = load ptr, ptr %5, align 8
  %31 = load i32, ptr %6, align 4
  %32 = load i32, ptr %7, align 4
  %33 = load i32, ptr %8, align 4
  call void (ptr, ptr, ...) @proto_item_append_text(ptr noundef %30, ptr noundef nonnull @.str.175, i32 noundef %31, i32 noundef %32, i32 noundef %33)
  call void @llvm.lifetime.end.p0(i64 4, ptr nonnull %8) #5
  call void @llvm.lifetime.end.p0(i64 4, ptr nonnull %7) #5
  call void @llvm.lifetime.end.p0(i64 4, ptr nonnull %6) #5
  call void @llvm.lifetime.end.p0(i64 8, ptr nonnull %5) #5
  %34 = add i32 %.0262, 1
  %35 = load i32, ptr %4, align 4
  %.not = icmp ugt i32 %34, %35
  br i1 %.not, label %._crit_edge, label %.lr.ph, !llvm.loop !11

._crit_edge:                                      ; preds = %.lr.ph, %3
  call void @llvm.lifetime.end.p0(i64 4, ptr nonnull %4) #5
  ret void
}